; ModuleID = 'source-C-CXX/56/3308.cpp'
source_filename = "source-C-CXX/56/3308.cpp"
target datalayout = "e-m:e-p270:32:32-p271:32:32-p272:64:64-i64:64-f80:128-n8:16:32:64-S128"
target triple = "x86_64-pc-linux-gnu"

%"class.std::ios_base::Init" = type { i8 }
%"class.std::basic_istream" = type { i32 (...)**, i64, %"class.std::basic_ios" }
%"class.std::basic_ios" = type { %"class.std::ios_base", %"class.std::basic_ostream"*, i8, i8, %"class.std::basic_streambuf"*, %"class.std::ctype"*, %"class.std::num_put"*, %"class.std::num_get"* }
%"class.std::ios_base" = type { i32 (...)**, i64, i64, i32, i32, i32, %"struct.std::ios_base::_Callback_list"*, %"struct.std::ios_base::_Words", [8 x %"struct.std::ios_base::_Words"], i32, %"struct.std::ios_base::_Words"*, %"class.std::locale" }
%"struct.std::ios_base::_Callback_list" = type { %"struct.std::ios_base::_Callback_list"*, void (i32, %"class.std::ios_base"*, i32)*, i32, i32 }
%"struct.std::ios_base::_Words" = type { i8*, i64 }
%"class.std::locale" = type { %"class.std::locale::_Impl"* }
%"class.std::locale::_Impl" = type { i32, %"class.std::locale::facet"**, i64, %"class.std::locale::facet"**, i8** }
%"class.std::locale::facet" = type <{ i32 (...)**, i32, [4 x i8] }>
%"class.std::basic_ostream" = type { i32 (...)**, %"class.std::basic_ios" }
%"class.std::basic_streambuf" = type { i32 (...)**, i8*, i8*, i8*, i8*, i8*, i8*, %"class.std::locale" }
%"class.std::ctype" = type <{ %"class.std::locale::facet.base", [4 x i8], %struct.__locale_struct*, i8, [7 x i8], i32*, i32*, i16*, i8, [256 x i8], [256 x i8], i8, [6 x i8] }>
%"class.std::locale::facet.base" = type <{ i32 (...)**, i32 }>
%struct.__locale_struct = type { [13 x %struct.__locale_data*], i16*, i32*, i32*, [13 x i8*] }
%struct.__locale_data = type opaque
%"class.std::num_put" = type { %"class.std::locale::facet.base", [4 x i8] }
%"class.std::num_get" = type { %"class.std::locale::facet.base", [4 x i8] }

@_ZStL8__ioinit = internal global %"class.std::ios_base::Init" zeroinitializer, align 1
@__dso_handle = external hidden global i8
@_ZSt3cin = external global %"class.std::basic_istream", align 8
@.str = private unnamed_addr constant [3 x i8] c"%s\00", align 1
@llvm.global_ctors = appending global [1 x { i32, void ()*, i8* }] [{ i32, void ()*, i8* } { i32 65535, void ()* @_GLOBAL__sub_I_3308.cpp, i8* null }]

declare void @_ZNSt8ios_base4InitC1Ev(%"class.std::ios_base::Init"* nonnull align 1 dereferenceable(1)) unnamed_addr #0

; Function Attrs: nounwind
declare void @_ZNSt8ios_base4InitD1Ev(%"class.std::ios_base::Init"* nonnull align 1 dereferenceable(1)) unnamed_addr #1

; Function Attrs: nofree nounwind
declare i32 @__cxa_atexit(void (i8*)*, i8*, i8*) local_unnamed_addr #2

; Function Attrs: mustprogress norecurse sspstrong uwtable
define dso_local i32 @main() local_unnamed_addr #3 {
  %1 = alloca [100 x i8], align 16
  %2 = alloca i32, align 4
  %3 = getelementptr inbounds [100 x i8], [100 x i8]* %1, i64 0, i64 0
  call void @llvm.lifetime.start.p0i8(i64 100, i8* nonnull %3) #8
  %4 = bitcast i32* %2 to i8*
  call void @llvm.lifetime.start.p0i8(i64 4, i8* nonnull %4) #8
  %5 = call nonnull align 8 dereferenceable(16) %"class.std::basic_istream"* @_ZNSirsERi(%"class.std::basic_istream"* nonnull align 8 dereferenceable(16) @_ZSt3cin, i32* nonnull align 4 dereferenceable(4) %2)
  %6 = load i32, i32* %2, align 4, !tbaa !5
  %7 = icmp slt i32 %6, 1
  br i1 %7, label %48, label %8

8:                                                ; preds = %0, %43
  %9 = phi i32 [ %45, %43 ], [ 1, %0 ]
  %10 = call i32 (i8*, ...) @__isoc99_scanf(i8* getelementptr inbounds ([3 x i8], [3 x i8]* @.str, i64 0, i64 0), i8* nonnull %3)
  %11 = call i64 @strlen(i8* noundef nonnull %3) #9
  %12 = shl i64 %11, 32
  %13 = add i64 %12, -4294967296
  %14 = ashr exact i64 %13, 32
  %15 = getelementptr inbounds [100 x i8], [100 x i8]* %1, i64 0, i64 %14
  %16 = load i8, i8* %15, align 1, !tbaa !9
  switch i8 %16, label %43 [
    i8 114, label %17
    i8 121, label %23
    i8 103, label %29
  ]

17:                                               ; preds = %8
  %18 = add i64 %12, -8589934592
  %19 = ashr exact i64 %18, 32
  %20 = getelementptr inbounds [100 x i8], [100 x i8]* %1, i64 0, i64 %19
  %21 = load i8, i8* %20, align 1, !tbaa !9
  %22 = icmp eq i8 %21, 101
  br i1 %22, label %41, label %43

23:                                               ; preds = %8
  %24 = add i64 %12, -8589934592
  %25 = ashr exact i64 %24, 32
  %26 = getelementptr inbounds [100 x i8], [100 x i8]* %1, i64 0, i64 %25
  %27 = load i8, i8* %26, align 1, !tbaa !9
  %28 = icmp eq i8 %27, 108
  br i1 %28, label %41, label %43

29:                                               ; preds = %8
  %30 = add i64 %12, -8589934592
  %31 = ashr exact i64 %30, 32
  %32 = getelementptr inbounds [100 x i8], [100 x i8]* %1, i64 0, i64 %31
  %33 = load i8, i8* %32, align 1, !tbaa !9
  %34 = icmp eq i8 %33, 110
  br i1 %34, label %35, label %43

35:                                               ; preds = %29
  %36 = add i64 %12, -12884901888
  %37 = ashr exact i64 %36, 32
  %38 = getelementptr inbounds [100 x i8], [100 x i8]* %1, i64 0, i64 %37
  %39 = load i8, i8* %38, align 1, !tbaa !9
  %40 = icmp eq i8 %39, 105
  br i1 %40, label %41, label %43

41:                                               ; preds = %35, %23, %17
  %42 = phi i8* [ %20, %17 ], [ %26, %23 ], [ %38, %35 ]
  store i8 0, i8* %42, align 1, !tbaa !9
  br label %43

43:                                               ; preds = %41, %29, %35, %23, %17, %8
  %44 = call i32 @puts(i8* nonnull %3)
  %45 = add nuw nsw i32 %9, 1
  %46 = load i32, i32* %2, align 4, !tbaa !5
  %47 = icmp slt i32 %9, %46
  br i1 %47, label %8, label %48, !llvm.loop !10

48:                                               ; preds = %43, %0
  call void @llvm.lifetime.end.p0i8(i64 4, i8* nonnull %4) #8
  call void @llvm.lifetime.end.p0i8(i64 100, i8* nonnull %3) #8
  ret i32 0
}

; Function Attrs: argmemonly mustprogress nofree nosync nounwind willreturn
declare void @llvm.lifetime.start.p0i8(i64 immarg, i8* nocapture) #4

declare nonnull align 8 dereferenceable(16) %"class.std::basic_istream"* @_ZNSirsERi(%"class.std::basic_istream"* nonnull align 8 dereferenceable(16), i32* nonnull align 4 dereferenceable(4)) local_unnamed_addr #0

; Function Attrs: nofree nounwind
declare noundef i32 @__isoc99_scanf(i8* nocapture noundef readonly, ...) local_unnamed_addr #5

; Function Attrs: argmemonly mustprogress nofree nounwind readonly willreturn
declare i64 @strlen(i8* nocapture) local_unnamed_addr #6

; Function Attrs: argmemonly mustprogress nofree nosync nounwind willreturn
declare void @llvm.lifetime.end.p0i8(i64 immarg, i8* nocapture) #4

; Function Attrs: sspstrong uwtable
define internal void @_GLOBAL__sub_I_3308.cpp() #7 section ".text.startup" {
  tail call void @_ZNSt8ios_base4InitC1Ev(%"class.std::ios_base::Init"* nonnull align 1 dereferenceable(1) @_ZStL8__ioinit)
  %1 = tail call i32 @__cxa_atexit(void (i8*)* bitcast (void (%"class.std::ios_base::Init"*)* @_ZNSt8ios_base4InitD1Ev to void (i8*)*), i8* getelementptr inbounds (%"class.std::ios_base::Init", %"class.std::ios_base::Init"* @_ZStL8__ioinit, i64 0, i32 0), i8* nonnull @__dso_handle) #8
  ret void
}

; Function Attrs: nofree nounwind
declare noundef i32 @puts(i8* nocapture noundef readonly) local_unnamed_addr #2


!llvm.module.flags = !{!0, !1, !2, !3}
!llvm.ident = !{!4}

!0 = !{i32 1, !"wchar_size", i32 4}
!1 = !{i32 7, !"PIC Level", i32 2}
!2 = !{i32 7, !"PIE Level", i32 2}
!3 = !{i32 7, !"uwtable", i32 1}
!4 = !{!"clang version 13.0.0"}
!5 = !{!6, !6, i64 0}
!6 = !{!"int", !7, i64 0}
!7 = !{!"omnipotent char", !8, i64 0}
!8 = !{!"Simple C++ TBAA"}
!9 = !{!7, !7, i64 0}
!10 = distinct !{!10, !11}
!11 = !{!"llvm.loop.mustprogress"}
